target datalayout = "e-m:e-p270:32:32-p271:32:32-p272:64:64-i64:64-i128:128-f80:128-n8:16:32:64-S128"
target triple = "x86_64-pc-linux-gnu"

%struct.mbedtls_psa_aead_operation_t = type { i32, i16, i8, i8, %union.anon }
%union.anon = type { %struct.mbedtls_gcm_context }
%struct.mbedtls_gcm_context = type { %struct.mbedtls_cipher_context_t, [16 x [2 x i64]], i64, i64, [16 x i8], [16 x i8], [16 x i8], i8, i8 }
%struct.mbedtls_cipher_context_t = type { ptr, i32, i32, ptr, ptr, [16 x i8], i64, [16 x i8], i64, ptr, ptr }

; Function Attrs: nounwind uwtable
define hidden i32 @mbedtls_psa_aead_finish(ptr noundef %0, ptr noundef %1, i64 noundef %2, ptr noundef %3, ptr noundef %4, i64 noundef %5, ptr noundef %6) #0 {
  %8 = alloca i32, align 4
  %9 = alloca ptr, align 8
  %10 = alloca ptr, align 8
  %11 = alloca i64, align 8
  %12 = alloca ptr, align 8
  %13 = alloca ptr, align 8
  %14 = alloca i64, align 8
  %15 = alloca ptr, align 8
  %16 = alloca i32, align 4
  %17 = alloca i64, align 8
  %18 = alloca i32, align 4
  store ptr %0, ptr %9, align 8, !tbaa !20
  store ptr %1, ptr %10, align 8, !tbaa !8
  store i64 %2, ptr %11, align 8, !tbaa !10
  store ptr %3, ptr %12, align 8, !tbaa !14
  store ptr %4, ptr %13, align 8, !tbaa !8
  store i64 %5, ptr %14, align 8, !tbaa !10
  store ptr %6, ptr %15, align 8, !tbaa !14
  call void @llvm.lifetime.start.p0(i64 4, ptr %16) #5
  store i32 -151, ptr %16, align 4, !tbaa !12
  call void @llvm.lifetime.start.p0(i64 8, ptr %17) #5
  store i64 0, ptr %17, align 8, !tbaa !10
  %19 = load i64, ptr %14, align 8, !tbaa !10
  %20 = load ptr, ptr %9, align 8, !tbaa !20
  %21 = getelementptr inbounds nuw %struct.mbedtls_psa_aead_operation_t, ptr %20, i32 0, i32 3
  %22 = load i8, ptr %21, align 1, !tbaa !16
  %23 = zext i8 %22 to i64
  %24 = icmp ult i64 %19, %23
  br i1 %24, label %25, label %26

25:                                               ; preds = %7
  store i32 -138, ptr %8, align 4
  store i32 1, ptr %18, align 4
  br label %98

26:                                               ; preds = %7
  %27 = load ptr, ptr %9, align 8, !tbaa !20
  %28 = getelementptr inbounds nuw %struct.mbedtls_psa_aead_operation_t, ptr %27, i32 0, i32 0
  %29 = load i32, ptr %28, align 8, !tbaa !19
  %30 = icmp eq i32 %29, 89129472
  br i1 %30, label %31, label %44

31:                                               ; preds = %26
  %32 = load ptr, ptr %9, align 8, !tbaa !20
  %33 = getelementptr inbounds nuw %struct.mbedtls_psa_aead_operation_t, ptr %32, i32 0, i32 4
  %34 = load ptr, ptr %10, align 8, !tbaa !8
  %35 = load i64, ptr %11, align 8, !tbaa !10
  %36 = load ptr, ptr %12, align 8, !tbaa !14
  %37 = load ptr, ptr %13, align 8, !tbaa !8
  %38 = load ptr, ptr %9, align 8, !tbaa !20
  %39 = getelementptr inbounds nuw %struct.mbedtls_psa_aead_operation_t, ptr %38, i32 0, i32 3
  %40 = load i8, ptr %39, align 1, !tbaa !16
  %41 = zext i8 %40 to i64
  %42 = call i32 @mbedtls_gcm_finish(ptr noundef %33, ptr noundef %34, i64 noundef %35, ptr noundef %36, ptr noundef %37, i64 noundef %41)
  %43 = call i32 @mbedtls_to_psa_error(i32 noundef %42)
  store i32 %43, ptr %16, align 4, !tbaa !12
  br label %85

44:                                               ; preds = %26
  %45 = load ptr, ptr %9, align 8, !tbaa !20
  %46 = getelementptr inbounds nuw %struct.mbedtls_psa_aead_operation_t, ptr %45, i32 0, i32 0
  %47 = load i32, ptr %46, align 8, !tbaa !19
  %48 = icmp eq i32 %47, 89129216
  br i1 %48, label %49, label %67

49:                                               ; preds = %44
  %50 = load i64, ptr %14, align 8, !tbaa !10
  %51 = load ptr, ptr %9, align 8, !tbaa !20
  %52 = getelementptr inbounds nuw %struct.mbedtls_psa_aead_operation_t, ptr %51, i32 0, i32 3
  %53 = load i8, ptr %52, align 1, !tbaa !16
  %54 = zext i8 %53 to i64
  %55 = icmp ult i64 %50, %54
  br i1 %55, label %56, label %57

56:                                               ; preds = %49
  store i32 -138, ptr %8, align 4
  store i32 1, ptr %18, align 4
  br label %98

57:                                               ; preds = %49
  %58 = load ptr, ptr %9, align 8, !tbaa !20
  %59 = getelementptr inbounds nuw %struct.mbedtls_psa_aead_operation_t, ptr %58, i32 0, i32 4
  %60 = load ptr, ptr %13, align 8, !tbaa !8
  %61 = load ptr, ptr %9, align 8, !tbaa !20
  %62 = getelementptr inbounds nuw %struct.mbedtls_psa_aead_operation_t, ptr %61, i32 0, i32 3
  %63 = load i8, ptr %62, align 1, !tbaa !16
  %64 = zext i8 %63 to i64
  %65 = call i32 @mbedtls_ccm_finish(ptr noundef %59, ptr noundef %60, i64 noundef %64)
  %66 = call i32 @mbedtls_to_psa_error(i32 noundef %65)
  store i32 %66, ptr %16, align 4, !tbaa !12
  br label %84

67:                                               ; preds = %44
  %68 = load ptr, ptr %9, align 8, !tbaa !20
  %69 = getelementptr inbounds nuw %struct.mbedtls_psa_aead_operation_t, ptr %68, i32 0, i32 0
  %70 = load i32, ptr %69, align 8, !tbaa !19
  %71 = icmp eq i32 %70, 84935936
  br i1 %71, label %72, label %82

72:                                               ; preds = %67
  %73 = load i64, ptr %14, align 8, !tbaa !10
  %74 = icmp ult i64 %73, 16
  br i1 %74, label %75, label %76

75:                                               ; preds = %72
  store i32 -138, ptr %8, align 4
  store i32 1, ptr %18, align 4
  br label %98

76:                                               ; preds = %72
  %77 = load ptr, ptr %9, align 8, !tbaa !20
  %78 = getelementptr inbounds nuw %struct.mbedtls_psa_aead_operation_t, ptr %77, i32 0, i32 4
  %79 = load ptr, ptr %13, align 8, !tbaa !8
  %80 = call i32 @mbedtls_chachapoly_finish(ptr noundef %78, ptr noundef %79)
  %81 = call i32 @mbedtls_to_psa_error(i32 noundef %80)
  store i32 %81, ptr %16, align 4, !tbaa !12
  br label %83

82:                                               ; preds = %67
  store i32 -134, ptr %8, align 4
  store i32 1, ptr %18, align 4
  br label %98

83:                                               ; preds = %76
  br label %84

84:                                               ; preds = %83, %57
  br label %85

85:                                               ; preds = %84, %31
  %86 = load i32, ptr %16, align 4, !tbaa !12
  %87 = icmp eq i32 %86, 0
  br i1 %87, label %88, label %96

88:                                               ; preds = %85
  %89 = load i64, ptr %17, align 8, !tbaa !10
  %90 = load ptr, ptr %12, align 8, !tbaa !14
  store i64 %89, ptr %90, align 8, !tbaa !10
  %91 = load ptr, ptr %9, align 8, !tbaa !20
  %92 = getelementptr inbounds nuw %struct.mbedtls_psa_aead_operation_t, ptr %91, i32 0, i32 3
  %93 = load i8, ptr %92, align 1, !tbaa !16
  %94 = zext i8 %93 to i64
  %95 = load ptr, ptr %15, align 8, !tbaa !14
  store i64 %94, ptr %95, align 8, !tbaa !10
  br label %96

96:                                               ; preds = %88, %85
  %97 = load i32, ptr %16, align 4, !tbaa !12
  store i32 %97, ptr %8, align 4
  store i32 1, ptr %18, align 4
  br label %98

98:                                               ; preds = %96, %82, %75, %56, %25
  call void @llvm.lifetime.end.p0(i64 8, ptr %17) #5
  call void @llvm.lifetime.end.p0(i64 4, ptr %16) #5
  %99 = load i32, ptr %8, align 4
  ret i32 %99
}