; Function Attrs: nounwind uwtable
define hidden i32 @mbedtls_psa_aead_finish(ptr noundef %0, ptr noundef %1, i64 noundef %2, ptr noundef %3, ptr noundef %4, i64 noundef %5, ptr noundef writeonly captures(none) %6) local_unnamed_addr #0 {
  %8 = getelementptr inbounds nuw i8, ptr %0, i64 7
  %9 = load i8, ptr %8, align 1, !tbaa !3
  %10 = zext i8 %9 to i64
  %11 = icmp ult i64 %5, %10
  br i1 %11, label %31, label %12

12:                                               ; preds = %7
  %13 = load i32, ptr %0, align 8, !tbaa !9
  switch i32 %13, label %31 [
    i32 89129472, label %14
    i32 89129216, label %17
    i32 84935936, label %20
  ]

14:                                               ; preds = %12
  %15 = getelementptr inbounds nuw i8, ptr %0, i64 8
  %16 = tail call i32 @mbedtls_gcm_finish(ptr noundef nonnull %15, ptr noundef %1, i64 noundef %2, ptr noundef %3, ptr noundef %4, i64 noundef %10) #4
  br label %25

17:                                               ; preds = %12
  %18 = getelementptr inbounds nuw i8, ptr %0, i64 8
  %19 = tail call i32 @mbedtls_ccm_finish(ptr noundef nonnull %18, ptr noundef %4, i64 noundef %10) #4
  br label %25

20:                                               ; preds = %12
  %21 = icmp ult i64 %5, 16
  br i1 %21, label %31, label %22

22:                                               ; preds = %20
  %23 = getelementptr inbounds nuw i8, ptr %0, i64 8
  %24 = tail call i32 @mbedtls_chachapoly_finish(ptr noundef nonnull %23, ptr noundef %4) #4
  br label %25

25:                                               ; preds = %17, %22, %14
  %.sink = phi i32 [ %19, %17 ], [ %24, %22 ], [ %16, %14 ]
  %26 = tail call i32 @mbedtls_to_psa_error(i32 noundef %.sink) #4
  %27 = icmp eq i32 %26, 0
  br i1 %27, label %28, label %31

28:                                               ; preds = %25
  store i64 0, ptr %3, align 8, !tbaa !10
  %29 = load i8, ptr %8, align 1, !tbaa !3
  %30 = zext i8 %29 to i64
  store i64 %30, ptr %6, align 8, !tbaa !10
  br label %31

31:                                               ; preds = %25, %28, %12, %20, %7
  %.0 = phi i32 [ -138, %7 ], [ -138, %20 ], [ -134, %12 ], [ 0, %28 ], [ %26, %25 ]
  ret i32 %.0
}